Archive member included to satisfy reference by file (symbol)

/home/an20421/applied_crypto/scale-hw/build/lpc1313fbd48/lib/libscale.a(scale.o)
                              /tmp/cchNcqMJ.o (scale_init)
/home/an20421/applied_crypto/scale-hw/build/lpc1313fbd48/lib/libscale.a(bsp.o)
                              /home/an20421/applied_crypto/scale-hw/build/lpc1313fbd48/lib/libscale.a(scale.o) (scale_conf)
/home/an20421/applied_crypto/scale-hw/build/lpc1313fbd48/lib/libscale.a(lpc13xx.o)
                              /home/an20421/applied_crypto/scale-hw/build/lpc1313fbd48/lib/libscale.a(scale.o) (LPC13XX_SYSCON)
/home/an20421/applied_crypto/scale-hw/build/lpc1313fbd48/lib/libscale.a(crt0.o)
                              (__irq_table)
/opt/gcc-arm-none-eabi/7-2017-q4-major/bin/../lib/gcc/arm-none-eabi/7.2.1/../../../../arm-none-eabi/lib/thumb/v7-m/libc.a(lib_a-memcmp.o)
                              /tmp/cchNcqMJ.o (memcmp)

Allocating common symbols
Common symbol       size              file

scale_conf          0x4               /home/an20421/applied_crypto/scale-hw/build/lpc1313fbd48/lib/libscale.a(bsp.o)

Memory Configuration

Name             Origin             Length             Attributes
rom              0x0000000000000000 0x0000000000008000 xr
ram              0x0000000010000000 0x0000000000002000 xrw
*default*        0x0000000000000000 0xffffffffffffffff

Linker script and memory map

LOAD /tmp/cchNcqMJ.o
LOAD /home/an20421/applied_crypto/scale-hw/build/lpc1313fbd48/lib/libscale.a
START GROUP
LOAD /opt/gcc-arm-none-eabi/7-2017-q4-major/bin/../lib/gcc/arm-none-eabi/7.2.1/thumb/v7-m/libgcc.a
LOAD /opt/gcc-arm-none-eabi/7-2017-q4-major/bin/../lib/gcc/arm-none-eabi/7.2.1/../../../../arm-none-eabi/lib/thumb/v7-m/libc.a
END GROUP
                0x0000000000000000                . = 0x0

.text           0x0000000000000000      0xac0
                0x0000000000000000                __head_text = .
 *(.data.__irq_handler)
 .data.__irq_handler
                0x0000000000000000       0x40 /home/an20421/applied_crypto/scale-hw/build/lpc1313fbd48/lib/libscale.a(crt0.o)
                0x0000000000000000                __irq_table
 *(.text.__irq_handler)
 .text.__irq_handler
                0x0000000000000040       0x48 /home/an20421/applied_crypto/scale-hw/build/lpc1313fbd48/lib/libscale.a(crt0.o)
                0x0000000000000040                __irq_handler_nul
                0x0000000000000042                __irq_handler_rst
 *(.text*)
 .text          0x0000000000000088      0x2f2 /tmp/cchNcqMJ.o
                0x0000000000000088                xtime
                0x000000000000009a                btime
                0x00000000000000ba                aes_gf28_inv
                0x0000000000000114                sbox
                0x0000000000000142                aes_enc_exp_step
                0x000000000000019c                aes_enc_rnd_key
                0x00000000000001b8                aes_enc_rnd_sub
                0x00000000000001d0                aes_enc_rnd_row
                0x0000000000000204                aes_enc_rnd_mix
                0x0000000000000280                octetstr_rd
                0x00000000000002ac                octetstr_wr
                0x00000000000002d2                aes_init
                0x00000000000002d4                aes
 *fill*         0x000000000000037a        0x2 
 .text.startup  0x000000000000037c      0x190 /tmp/cchNcqMJ.o
                0x000000000000037c                main
 .text          0x000000000000050c      0x4cc /home/an20421/applied_crypto/scale-hw/build/lpc1313fbd48/lib/libscale.a(scale.o)
                0x000000000000050c                scale_init
                0x00000000000007b0                scale_delay_us
                0x00000000000007cc                scale_delay_ms
                0x00000000000007e4                scale_tsc
                0x00000000000007f4                scale_gpio_rd
                0x0000000000000830                scale_gpio_wr
                0x0000000000000880                scale_uart_rd_avail
                0x0000000000000890                scale_uart_wr_avail
                0x00000000000008a0                scale_uart_rd
                0x00000000000008b8                scale_uart_wr
                0x00000000000008d0                scale_i2c_fsm
                0x00000000000009c4                scale_i2c_rd
                0x00000000000009ce                scale_i2c_wr
 .text          0x00000000000009d8        0x0 /home/an20421/applied_crypto/scale-hw/build/lpc1313fbd48/lib/libscale.a(bsp.o)
 .text          0x00000000000009d8        0x0 /home/an20421/applied_crypto/scale-hw/build/lpc1313fbd48/lib/libscale.a(lpc13xx.o)
 .text.lpc13xx  0x00000000000009d8        0x8 /home/an20421/applied_crypto/scale-hw/build/lpc1313fbd48/lib/libscale.a(lpc13xx.o)
                0x00000000000009d8                lpc13xx_irq_enable
                0x00000000000009dc                lpc13xx_irq_unable
 .text          0x00000000000009e0        0x0 /home/an20421/applied_crypto/scale-hw/build/lpc1313fbd48/lib/libscale.a(crt0.o)
 .text.__start  0x00000000000009e0        0xa /home/an20421/applied_crypto/scale-hw/build/lpc1313fbd48/lib/libscale.a(crt0.o)
                0x00000000000009e0                __start
 .text          0x00000000000009ea        0x0 /opt/gcc-arm-none-eabi/7-2017-q4-major/bin/../lib/gcc/arm-none-eabi/7.2.1/../../../../arm-none-eabi/lib/thumb/v7-m/libc.a(lib_a-memcmp.o)
 *fill*         0x00000000000009ea        0x2 
 .text.memcmp   0x00000000000009ec       0x64 /opt/gcc-arm-none-eabi/7-2017-q4-major/bin/../lib/gcc/arm-none-eabi/7.2.1/../../../../arm-none-eabi/lib/thumb/v7-m/libc.a(lib_a-memcmp.o)
                0x00000000000009ec                memcmp
 *(.text.*)
 *(.rodata*)
 .rodata        0x0000000000000a50       0x6e /tmp/cchNcqMJ.o
 *(.rodata.*)
                0x0000000000000ac0                . = ALIGN (0x4)
 *fill*         0x0000000000000abe        0x2 
                0x0000000000000ac0                __foot_text = .

.glue_7         0x0000000000000ac0        0x0
 .glue_7        0x0000000000000ac0        0x0 linker stubs

.glue_7t        0x0000000000000ac0        0x0
 .glue_7t       0x0000000000000ac0        0x0 linker stubs

.vfp11_veneer   0x0000000000000ac0        0x0
 .vfp11_veneer  0x0000000000000ac0        0x0 linker stubs

.v4_bx          0x0000000000000ac0        0x0
 .v4_bx         0x0000000000000ac0        0x0 linker stubs

.iplt           0x0000000000000ac0        0x0
 .iplt          0x0000000000000ac0        0x0 /tmp/cchNcqMJ.o

.rel.dyn        0x0000000000000ac0        0x0
 .rel.iplt      0x0000000000000ac0        0x0 /tmp/cchNcqMJ.o

.data           0x0000000010000000       0x2c load address 0x0000000000000ac0
                0x0000000010000000                __head_data = .
 *(.data)
 .data          0x0000000010000000        0x0 /tmp/cchNcqMJ.o
 .data          0x0000000010000000        0x4 /home/an20421/applied_crypto/scale-hw/build/lpc1313fbd48/lib/libscale.a(scale.o)
                0x0000000010000000                SCALE_CONF
 .data          0x0000000010000004        0x0 /home/an20421/applied_crypto/scale-hw/build/lpc1313fbd48/lib/libscale.a(bsp.o)
 .data          0x0000000010000004        0x0 /home/an20421/applied_crypto/scale-hw/build/lpc1313fbd48/lib/libscale.a(lpc13xx.o)
 .data          0x0000000010000004        0x0 /home/an20421/applied_crypto/scale-hw/build/lpc1313fbd48/lib/libscale.a(crt0.o)
 .data          0x0000000010000004        0x0 /opt/gcc-arm-none-eabi/7-2017-q4-major/bin/../lib/gcc/arm-none-eabi/7.2.1/../../../../arm-none-eabi/lib/thumb/v7-m/libc.a(lib_a-memcmp.o)
 *(.data.*)
 .data.lpc13xx  0x0000000010000004       0x28 /home/an20421/applied_crypto/scale-hw/build/lpc1313fbd48/lib/libscale.a(lpc13xx.o)
                0x0000000010000004                LPC13XX_SYSCON
                0x0000000010000008                LPC13XX_IOCON
                0x000000001000000c                LPC13XX_GPIO0
                0x0000000010000010                LPC13XX_GPIO1
                0x0000000010000014                LPC13XX_GPIO2
                0x0000000010000018                LPC13XX_GPIO3
                0x000000001000001c                LPC13XX_UART
                0x0000000010000020                LPC13XX_I2C
                0x0000000010000024                LPC13XX_FMC
                0x0000000010000028                LPC13XX_SYSTICK
                0x000000001000002c                . = ALIGN (0x4)
                0x000000001000002c                __foot_data = .

.igot.plt       0x000000001000002c        0x0 load address 0x0000000000000aec
 .igot.plt      0x000000001000002c        0x0 /tmp/cchNcqMJ.o

.bss            0x0000000010000030        0x4 load address 0x0000000000000af0
                0x0000000010000030                __head_bss = .
 *(.bss)
 .bss           0x0000000010000030        0x0 /tmp/cchNcqMJ.o
 .bss           0x0000000010000030        0x0 /home/an20421/applied_crypto/scale-hw/build/lpc1313fbd48/lib/libscale.a(scale.o)
 .bss           0x0000000010000030        0x0 /home/an20421/applied_crypto/scale-hw/build/lpc1313fbd48/lib/libscale.a(bsp.o)
 .bss           0x0000000010000030        0x0 /home/an20421/applied_crypto/scale-hw/build/lpc1313fbd48/lib/libscale.a(lpc13xx.o)
 .bss           0x0000000010000030        0x0 /home/an20421/applied_crypto/scale-hw/build/lpc1313fbd48/lib/libscale.a(crt0.o)
 .bss           0x0000000010000030        0x0 /opt/gcc-arm-none-eabi/7-2017-q4-major/bin/../lib/gcc/arm-none-eabi/7.2.1/../../../../arm-none-eabi/lib/thumb/v7-m/libc.a(lib_a-memcmp.o)
 *(.bss.*)
                0x0000000010000030                . = ALIGN (0x4)
                0x0000000010000030                __foot_bss = .
 COMMON         0x0000000010000030        0x4 /home/an20421/applied_crypto/scale-hw/build/lpc1313fbd48/lib/libscale.a(bsp.o)
                0x0000000010000030                scale_conf
                [!provide]                        PROVIDE (__load_text, LOADADDR (.text))
                0x0000000000000ac0                PROVIDE (__load_data, LOADADDR (.data))
                0x0000000000000af0                PROVIDE (__load_bss, LOADADDR (.bss))
                0x0000000010002000                PROVIDE (__tos, (ORIGIN (ram) + LENGTH (ram)))
OUTPUT(target.elf elf32-littlearm)

.comment        0x0000000000000000       0x7e
 .comment       0x0000000000000000       0x7e /tmp/cchNcqMJ.o
                                         0x7f (size before relaxing)
 .comment       0x000000000000007e       0x7f /home/an20421/applied_crypto/scale-hw/build/lpc1313fbd48/lib/libscale.a(scale.o)
 .comment       0x000000000000007e       0x7f /home/an20421/applied_crypto/scale-hw/build/lpc1313fbd48/lib/libscale.a(bsp.o)

.ARM.attributes
                0x0000000000000000       0x31
 .ARM.attributes
                0x0000000000000000       0x33 /tmp/cchNcqMJ.o
 .ARM.attributes
                0x0000000000000033       0x33 /home/an20421/applied_crypto/scale-hw/build/lpc1313fbd48/lib/libscale.a(scale.o)
 .ARM.attributes
                0x0000000000000066       0x33 /home/an20421/applied_crypto/scale-hw/build/lpc1313fbd48/lib/libscale.a(bsp.o)
 .ARM.attributes
                0x0000000000000099       0x21 /home/an20421/applied_crypto/scale-hw/build/lpc1313fbd48/lib/libscale.a(lpc13xx.o)
 .ARM.attributes
                0x00000000000000ba       0x21 /home/an20421/applied_crypto/scale-hw/build/lpc1313fbd48/lib/libscale.a(crt0.o)
 .ARM.attributes
                0x00000000000000db       0x2d /opt/gcc-arm-none-eabi/7-2017-q4-major/bin/../lib/gcc/arm-none-eabi/7.2.1/../../../../arm-none-eabi/lib/thumb/v7-m/libc.a(lib_a-memcmp.o)

.debug_frame    0x0000000000000000       0x38
 .debug_frame   0x0000000000000000       0x38 /opt/gcc-arm-none-eabi/7-2017-q4-major/bin/../lib/gcc/arm-none-eabi/7.2.1/../../../../arm-none-eabi/lib/thumb/v7-m/libc.a(lib_a-memcmp.o)
